; ModuleID = '50/2216.c'
source_filename = "50/2216.c"
target datalayout = "e-m:e-p270:32:32-p271:32:32-p272:64:64-i64:64-f80:128-n8:16:32:64-S128"
target triple = "x86_64-pc-linux-gnu"

@m = dso_local global [13 x i32] [i32 0, i32 31, i32 28, i32 31, i32 30, i32 31, i32 30, i32 31, i32 31, i32 30, i32 31, i32 30, i32 31], align 16
@.str = private unnamed_addr constant [3 x i8] c"%d\00", align 1
@.str.1 = private unnamed_addr constant [4 x i8] c"%d\0A\00", align 1

; Function Attrs: noinline nounwind uwtable
define dso_local i32 @main() #0 {
  %1 = alloca i32, align 4
  %2 = alloca i32, align 4
  %3 = alloca i32, align 4
  %4 = alloca i32, align 4
  %5 = alloca i32, align 4
  %6 = alloca i32, align 4
  %7 = alloca i32, align 4
  %8 = alloca i32, align 4
  store i32 0, i32* %1, align 4
  store i32 1, i32* %7, align 4
  store i32 1, i32* %8, align 4
  %9 = call i32 (i8*, ...) @__isoc99_scanf(i8* getelementptr inbounds ([3 x i8], [3 x i8]* @.str, i64 0, i64 0), i32* %2)
  %10 = load i32, i32* %2, align 4
  store i32 %10, i32* %6, align 4
  store i32 1, i32* %3, align 4
  br label %11

11:                                               ; preds = %42, %0
  %12 = load i32, i32* %3, align 4
  %13 = icmp sle i32 %12, 365
  br i1 %13, label %14, label %45

14:                                               ; preds = %11
  %15 = load i32, i32* %6, align 4
  %16 = add nsw i32 %15, 1
  store i32 %16, i32* %6, align 4
  %17 = load i32, i32* %6, align 4
  %18 = icmp eq i32 %17, 8
  br i1 %18, label %19, label %20

19:                                               ; preds = %14
  store i32 1, i32* %6, align 4
  br label %20

20:                                               ; preds = %19, %14
  %21 = load i32, i32* %7, align 4
  %22 = add nsw i32 %21, 1
  store i32 %22, i32* %7, align 4
  %23 = load i32, i32* %7, align 4
  %24 = load i32, i32* %8, align 4
  %25 = sext i32 %24 to i64
  %26 = getelementptr inbounds [13 x i32], [13 x i32]* @m, i64 0, i64 %25
  %27 = load i32, i32* %26, align 4
  %28 = icmp sgt i32 %23, %27
  br i1 %28, label %29, label %32

29:                                               ; preds = %20
  %30 = load i32, i32* %8, align 4
  %31 = add nsw i32 %30, 1
  store i32 %31, i32* %8, align 4
  store i32 1, i32* %7, align 4
  br label %32

32:                                               ; preds = %29, %20
  %33 = load i32, i32* %7, align 4
  %34 = icmp eq i32 %33, 13
  br i1 %34, label %35, label %41

35:                                               ; preds = %32
  %36 = load i32, i32* %6, align 4
  %37 = icmp eq i32 %36, 5
  br i1 %37, label %38, label %41

38:                                               ; preds = %35
  %39 = load i32, i32* %8, align 4
  %40 = call i32 (i8*, ...) @printf(i8* getelementptr inbounds ([4 x i8], [4 x i8]* @.str.1, i64 0, i64 0), i32 %39)
  br label %41

41:                                               ; preds = %38, %35, %32
  br label %42

42:                                               ; preds = %41
  %43 = load i32, i32* %3, align 4
  %44 = add nsw i32 %43, 1
  store i32 %44, i32* %3, align 4
  br label %11

45:                                               ; preds = %11
  %46 = load i32, i32* %1, align 4
  ret i32 %46
}

declare dso_local i32 @__isoc99_scanf(i8*, ...) #1

declare dso_local i32 @printf(i8*, ...) #1


!llvm.module.flags = !{!0}
!llvm.ident = !{!1}

!0 = !{i32 1, !"wchar_size", i32 4}
!1 = !{!"clang version 10.0.0-4ubuntu1 "}
