; ModuleID = 'source-C-CXX/49/2216.c'
source_filename = "source-C-CXX/49/2216.c"
target datalayout = "e-m:e-p270:32:32-p271:32:32-p272:64:64-i64:64-f80:128-n8:16:32:64-S128"
target triple = "x86_64-pc-linux-gnu"

@m = dso_local local_unnamed_addr global [13 x i32] [i32 0, i32 31, i32 28, i32 31, i32 30, i32 31, i32 30, i32 31, i32 31, i32 30, i32 31, i32 30, i32 31], align 16
@.str = private unnamed_addr constant [3 x i8] c"%d\00", align 1
@.str.1 = private unnamed_addr constant [4 x i8] c"%d\0A\00", align 1

; Function Attrs: nofree nounwind sspstrong uwtable
define dso_local i32 @main() local_unnamed_addr #0 {
  %1 = alloca i32, align 4
  %2 = bitcast i32* %1 to i8*
  call void @llvm.lifetime.start.p0i8(i64 4, i8* nonnull %2) #3
  %3 = call i32 (i8*, ...) @__isoc99_scanf(i8* getelementptr inbounds ([3 x i8], [3 x i8]* @.str, i64 0, i64 0), i32* nonnull %1)
  %4 = load i32, i32* %1, align 4, !tbaa !5
  br label %5

5:                                                ; preds = %0, %27
  %6 = phi i32 [ 1, %0 ], [ %21, %27 ]
  %7 = phi i32 [ 1, %0 ], [ %18, %27 ]
  %8 = phi i32 [ %4, %0 ], [ %12, %27 ]
  %9 = phi i32 [ 1, %0 ], [ %28, %27 ]
  %10 = add nsw i32 %8, 1
  %11 = icmp eq i32 %10, 8
  %12 = select i1 %11, i32 1, i32 %10
  %13 = add nsw i32 %7, 1
  %14 = zext i32 %6 to i64
  %15 = getelementptr inbounds [13 x i32], [13 x i32]* @m, i64 0, i64 %14
  %16 = load i32, i32* %15, align 4, !tbaa !5
  %17 = icmp slt i32 %7, %16
  %18 = select i1 %17, i32 %13, i32 1
  %19 = xor i1 %17, true
  %20 = zext i1 %19 to i32
  %21 = add nuw nsw i32 %6, %20
  %22 = icmp eq i32 %18, 13
  %23 = icmp eq i32 %12, 5
  %24 = select i1 %22, i1 %23, i1 false
  br i1 %24, label %25, label %27

25:                                               ; preds = %5
  %26 = call i32 (i8*, ...) @printf(i8* nonnull dereferenceable(1) getelementptr inbounds ([4 x i8], [4 x i8]* @.str.1, i64 0, i64 0), i32 %21)
  br label %27

27:                                               ; preds = %5, %25
  %28 = add nuw nsw i32 %9, 1
  %29 = icmp eq i32 %28, 366
  br i1 %29, label %30, label %5, !llvm.loop !9

30:                                               ; preds = %27
  call void @llvm.lifetime.end.p0i8(i64 4, i8* nonnull %2) #3
  ret i32 0
}

; Function Attrs: argmemonly mustprogress nofree nosync nounwind willreturn
declare void @llvm.lifetime.start.p0i8(i64 immarg, i8* nocapture) #1

; Function Attrs: nofree nounwind
declare noundef i32 @__isoc99_scanf(i8* nocapture noundef readonly, ...) local_unnamed_addr #2

; Function Attrs: nofree nounwind
declare noundef i32 @printf(i8* nocapture noundef readonly, ...) local_unnamed_addr #2

; Function Attrs: argmemonly mustprogress nofree nosync nounwind willreturn
declare void @llvm.lifetime.end.p0i8(i64 immarg, i8* nocapture) #1


!llvm.module.flags = !{!0, !1, !2, !3}
!llvm.ident = !{!4}

!0 = !{i32 1, !"wchar_size", i32 4}
!1 = !{i32 7, !"PIC Level", i32 2}
!2 = !{i32 7, !"PIE Level", i32 2}
!3 = !{i32 7, !"uwtable", i32 1}
!4 = !{!"clang version 13.0.0"}
!5 = !{!6, !6, i64 0}
!6 = !{!"int", !7, i64 0}
!7 = !{!"omnipotent char", !8, i64 0}
!8 = !{!"Simple C/C++ TBAA"}
!9 = distinct !{!9, !10}
!10 = !{!"llvm.loop.mustprogress"}
